(dp0
S'access-secret'
p1
S'SvQ4UDoTcjOe2qDv0zOWz5Jr1JcnHGfKHubQXCk5I'
p2
sS'consumer-key'
p3
S'I0yUwrDZHsm9FdOgPL3rCw'
p4
sS'access-key'
p5
S'359328103-QBWCdyFZDxrk5Rld8w7f2Q0aQzGPity7TYpX9xqG'
p6
sS'consumer-secret'
p7
S'7p7fesq3AEbNZyKMPaCP9feleBQwg3WUoSTqoqAhtt4'
p8
s.